target datalayout = "e-m:e-p270:32:32-p271:32:32-p272:64:64-i64:64-i128:128-f80:128-n8:16:32:64-S128"
target triple = "x86_64-pc-linux-gnu"

%struct._sapi_module_struct = type { ptr, ptr, ptr, ptr, ptr, ptr, ptr, ptr, ptr, ptr, ptr, ptr, ptr, ptr, ptr, ptr, ptr, ptr, ptr, ptr, ptr, ptr, ptr, ptr, i32, i32, ptr, ptr, ptr, ptr, ptr, ptr, i32, ptr, ptr, ptr }
%struct.__va_list_tag = type { i32, i32, ptr, ptr }

@sapi_module = external global %struct._sapi_module_struct, align 8
@.str.65 = private unnamed_addr constant [2 x i8] c"\0A\00", align 1
@.str.121 = private unnamed_addr constant [2 x i8] c" \00", align 1
@.str.122 = private unnamed_addr constant [15 x i8] c"<tr class=\22h\22>\00", align 1
@.str.123 = private unnamed_addr constant [5 x i8] c"<th>\00", align 1
@.str.124 = private unnamed_addr constant [6 x i8] c"</th>\00", align 1
@.str.125 = private unnamed_addr constant [5 x i8] c" => \00", align 1
@.str.126 = private unnamed_addr constant [7 x i8] c"</tr>\0A\00", align 1

; Function Attrs: nounwind uwtable
define void @php_info_print_table_header(i32 noundef %0, ...) #0 {
  %2 = alloca ptr, align 8
  %3 = alloca ptr, align 8
  %4 = alloca ptr, align 8
  %5 = alloca ptr, align 8
  %6 = alloca ptr, align 8
  %7 = alloca ptr, align 8
  %8 = alloca ptr, align 8
  %9 = alloca ptr, align 8
  %10 = alloca i32, align 4
  %11 = alloca i32, align 4
  %12 = alloca [1 x %struct.__va_list_tag], align 16
  %13 = alloca ptr, align 8
  store i32 %0, ptr %10, align 4
  %14 = getelementptr inbounds [1 x %struct.__va_list_tag], ptr %12, i64 0, i64 0
  call void @llvm.va_start(ptr %14)
  %15 = load i32, ptr getelementptr inbounds (%struct._sapi_module_struct, ptr @sapi_module, i32 0, i32 32), align 8
  %16 = icmp ne i32 %15, 0
  br i1 %16, label %22, label %17

17:                                               ; preds = %1
  store ptr @.str.122, ptr %2, align 8
  %18 = load ptr, ptr %2, align 8
  %19 = load ptr, ptr %2, align 8
  %20 = call i64 @strlen(ptr noundef %19) #9
  %21 = call i64 @php_output_write(ptr noundef %18, i64 noundef %20) #10
  br label %22

22:                                               ; preds = %17, %1
  store i32 0, ptr %11, align 4
  br label %23

23:                                               ; preds = %90, %22
  %24 = load i32, ptr %11, align 4
  %25 = load i32, ptr %10, align 4
  %26 = icmp slt i32 %24, %25
  br i1 %26, label %27, label %93

27:                                               ; preds = %23
  %28 = getelementptr inbounds [1 x %struct.__va_list_tag], ptr %12, i64 0, i64 0
  %29 = getelementptr inbounds %struct.__va_list_tag, ptr %28, i32 0, i32 0
  %30 = load i32, ptr %29, align 16
  %31 = icmp ule i32 %30, 40
  br i1 %31, label %32, label %37

32:                                               ; preds = %27
  %33 = getelementptr inbounds %struct.__va_list_tag, ptr %28, i32 0, i32 3
  %34 = load ptr, ptr %33, align 16
  %35 = getelementptr i8, ptr %34, i32 %30
  %36 = add i32 %30, 8
  store i32 %36, ptr %29, align 16
  br label %41

37:                                               ; preds = %27
  %38 = getelementptr inbounds %struct.__va_list_tag, ptr %28, i32 0, i32 2
  %39 = load ptr, ptr %38, align 8
  %40 = getelementptr i8, ptr %39, i32 8
  store ptr %40, ptr %38, align 8
  br label %41

41:                                               ; preds = %37, %32
  %42 = phi ptr [ %35, %32 ], [ %39, %37 ]
  %43 = load ptr, ptr %42, align 8
  store ptr %43, ptr %13, align 8
  %44 = load ptr, ptr %13, align 8
  %45 = icmp ne ptr %44, null
  br i1 %45, label %46, label %50

46:                                               ; preds = %41
  %47 = load ptr, ptr %13, align 8
  %48 = load i8, ptr %47, align 1
  %49 = icmp ne i8 %48, 0
  br i1 %49, label %51, label %50

50:                                               ; preds = %46, %41
  store ptr @.str.121, ptr %13, align 8
  br label %51

51:                                               ; preds = %50, %46
  %52 = load i32, ptr getelementptr inbounds (%struct._sapi_module_struct, ptr @sapi_module, i32 0, i32 32), align 8
  %53 = icmp ne i32 %52, 0
  br i1 %53, label %68, label %54

54:                                               ; preds = %51
  store ptr @.str.123, ptr %3, align 8
  %55 = load ptr, ptr %3, align 8
  %56 = load ptr, ptr %3, align 8
  %57 = call i64 @strlen(ptr noundef %56) #9
  %58 = call i64 @php_output_write(ptr noundef %55, i64 noundef %57) #10
  %59 = load ptr, ptr %13, align 8
  store ptr %59, ptr %4, align 8
  %60 = load ptr, ptr %4, align 8
  %61 = load ptr, ptr %4, align 8
  %62 = call i64 @strlen(ptr noundef %61) #9
  %63 = call i64 @php_output_write(ptr noundef %60, i64 noundef %62) #10
  store ptr @.str.124, ptr %5, align 8
  %64 = load ptr, ptr %5, align 8
  %65 = load ptr, ptr %5, align 8
  %66 = call i64 @strlen(ptr noundef %65) #9
  %67 = call i64 @php_output_write(ptr noundef %64, i64 noundef %66) #10
  br label %89

68:                                               ; preds = %51
  %69 = load ptr, ptr %13, align 8
  store ptr %69, ptr %6, align 8
  %70 = load ptr, ptr %6, align 8
  %71 = load ptr, ptr %6, align 8
  %72 = call i64 @strlen(ptr noundef %71) #9
  %73 = call i64 @php_output_write(ptr noundef %70, i64 noundef %72) #10
  %74 = load i32, ptr %11, align 4
  %75 = load i32, ptr %10, align 4
  %76 = sub nsw i32 %75, 1
  %77 = icmp slt i32 %74, %76
  br i1 %77, label %78, label %83

78:                                               ; preds = %68
  store ptr @.str.125, ptr %7, align 8
  %79 = load ptr, ptr %7, align 8
  %80 = load ptr, ptr %7, align 8
  %81 = call i64 @strlen(ptr noundef %80) #9
  %82 = call i64 @php_output_write(ptr noundef %79, i64 noundef %81) #10
  br label %88

83:                                               ; preds = %68
  store ptr @.str.65, ptr %8, align 8
  %84 = load ptr, ptr %8, align 8
  %85 = load ptr, ptr %8, align 8
  %86 = call i64 @strlen(ptr noundef %85) #9
  %87 = call i64 @php_output_write(ptr noundef %84, i64 noundef %86) #10
  br label %88

88:                                               ; preds = %83, %78
  br label %89

89:                                               ; preds = %88, %54
  br label %90

90:                                               ; preds = %89
  %91 = load i32, ptr %11, align 4
  %92 = add nsw i32 %91, 1
  store i32 %92, ptr %11, align 4
  br label %23

93:                                               ; preds = %23
  %94 = load i32, ptr getelementptr inbounds (%struct._sapi_module_struct, ptr @sapi_module, i32 0, i32 32), align 8
  %95 = icmp ne i32 %94, 0
  br i1 %95, label %101, label %96

96:                                               ; preds = %93
  store ptr @.str.126, ptr %9, align 8
  %97 = load ptr, ptr %9, align 8
  %98 = load ptr, ptr %9, align 8
  %99 = call i64 @strlen(ptr noundef %98) #9
  %100 = call i64 @php_output_write(ptr noundef %97, i64 noundef %99) #10
  br label %101

101:                                              ; preds = %96, %93
  %102 = getelementptr inbounds [1 x %struct.__va_list_tag], ptr %12, i64 0, i64 0
  call void @llvm.va_end(ptr %102)
  ret void
}