; Function Attrs: nounwind uwtable
define void @php_info_print_table_header(i32 noundef %0, ...) local_unnamed_addr #0 {
  %2 = alloca [1 x %struct.__va_list_tag], align 16
  call void @llvm.va_start(ptr nonnull %2)
  %3 = load i32, ptr getelementptr inbounds (%struct._sapi_module_struct, ptr @sapi_module, i64 0, i32 32), align 8
  %.not = icmp eq i32 %3, 0
  br i1 %.not, label %4, label %6

4:                                                ; preds = %1
  %5 = call i64 @php_output_write(ptr noundef nonnull @.str.122, i64 noundef 14) #14
  br label %6

6:                                                ; preds = %4, %1
  %7 = icmp sgt i32 %0, 0
  br i1 %7, label %.lr.ph, label %._crit_edge

.lr.ph:                                           ; preds = %6
  %8 = getelementptr inbounds i8, ptr %2, i64 8
  %9 = getelementptr inbounds i8, ptr %2, i64 16
  %10 = add nsw i32 %0, -1
  br label %11

11:                                               ; preds = %.lr.ph, %43
  %.02432 = phi i32 [ 0, %.lr.ph ], [ %44, %43 ]
  %12 = load i32, ptr %2, align 16
  %13 = icmp ult i32 %12, 41
  br i1 %13, label %14, label %19

14:                                               ; preds = %11
  %15 = load ptr, ptr %9, align 16
  %16 = zext nneg i32 %12 to i64
  %17 = getelementptr i8, ptr %15, i64 %16
  %18 = add nuw nsw i32 %12, 8
  store i32 %18, ptr %2, align 16
  br label %22

19:                                               ; preds = %11
  %20 = load ptr, ptr %8, align 8
  %21 = getelementptr i8, ptr %20, i64 8
  store ptr %21, ptr %8, align 8
  br label %22

22:                                               ; preds = %19, %14
  %23 = phi ptr [ %17, %14 ], [ %20, %19 ]
  %24 = load ptr, ptr %23, align 8
  %.not29 = icmp eq ptr %24, null
  br i1 %.not29, label %27, label %25

25:                                               ; preds = %22
  %26 = load i8, ptr %24, align 1
  %.not30 = icmp eq i8 %26, 0
  br i1 %.not30, label %27, label %28

27:                                               ; preds = %25, %22
  br label %28

28:                                               ; preds = %27, %25
  %.0 = phi ptr [ %24, %25 ], [ @.str.121, %27 ]
  %29 = load i32, ptr getelementptr inbounds (%struct._sapi_module_struct, ptr @sapi_module, i64 0, i32 32), align 8
  %.not31 = icmp eq i32 %29, 0
  br i1 %.not31, label %30, label %35

30:                                               ; preds = %28
  %31 = call i64 @php_output_write(ptr noundef nonnull @.str.123, i64 noundef 4) #14
  %32 = call i64 @strlen(ptr noundef nonnull dereferenceable(1) %.0) #13
  %33 = call i64 @php_output_write(ptr noundef nonnull %.0, i64 noundef %32) #14
  %34 = call i64 @php_output_write(ptr noundef nonnull @.str.124, i64 noundef 5) #14
  br label %43

35:                                               ; preds = %28
  %36 = call i64 @strlen(ptr noundef nonnull dereferenceable(1) %.0) #13
  %37 = call i64 @php_output_write(ptr noundef nonnull %.0, i64 noundef %36) #14
  %38 = icmp slt i32 %.02432, %10
  br i1 %38, label %39, label %41

39:                                               ; preds = %35
  %40 = call i64 @php_output_write(ptr noundef nonnull @.str.125, i64 noundef 4) #14
  br label %43

41:                                               ; preds = %35
  %42 = call i64 @php_output_write(ptr noundef nonnull @.str.65, i64 noundef 1) #14
  br label %43

43:                                               ; preds = %30, %41, %39
  %44 = add nuw nsw i32 %.02432, 1
  %exitcond.not = icmp eq i32 %44, %0
  br i1 %exitcond.not, label %._crit_edge, label %11

._crit_edge:                                      ; preds = %43, %6
  %45 = load i32, ptr getelementptr inbounds (%struct._sapi_module_struct, ptr @sapi_module, i64 0, i32 32), align 8
  %.not28 = icmp eq i32 %45, 0
  br i1 %.not28, label %46, label %48

46:                                               ; preds = %._crit_edge
  %47 = call i64 @php_output_write(ptr noundef nonnull @.str.126, i64 noundef 6) #14
  br label %48

48:                                               ; preds = %46, %._crit_edge
  call void @llvm.va_end(ptr nonnull %2)
  ret void
}